; ModuleID = '44/377.c'
source_filename = "44/377.c"
target datalayout = "e-m:e-p270:32:32-p271:32:32-p272:64:64-i64:64-f80:128-n8:16:32:64-S128"
target triple = "x86_64-pc-linux-gnu"

@.str = private unnamed_addr constant [3 x i8] c"%d\00", align 1
@.str.1 = private unnamed_addr constant [4 x i8] c"%d\0A\00", align 1

; Function Attrs: noinline nounwind uwtable
define dso_local i32 @main() #0 {
  %1 = alloca i32, align 4
  %2 = alloca i32, align 4
  %3 = alloca i32, align 4
  store i32 0, i32* %1, align 4
  store i32 0, i32* %2, align 4
  br label %4

4:                                                ; preds = %13, %0
  %5 = load i32, i32* %2, align 4
  %6 = icmp slt i32 %5, 6
  br i1 %6, label %7, label %16

7:                                                ; preds = %4
  %8 = call i32 (i8*, ...) @__isoc99_scanf(i8* getelementptr inbounds ([3 x i8], [3 x i8]* @.str, i64 0, i64 0), i32* %3)
  %9 = load i32, i32* %3, align 4
  %10 = call i32 @reverse(i32 %9)
  store i32 %10, i32* %3, align 4
  %11 = load i32, i32* %3, align 4
  %12 = call i32 (i8*, ...) @printf(i8* getelementptr inbounds ([4 x i8], [4 x i8]* @.str.1, i64 0, i64 0), i32 %11)
  br label %13

13:                                               ; preds = %7
  %14 = load i32, i32* %2, align 4
  %15 = add nsw i32 %14, 1
  store i32 %15, i32* %2, align 4
  br label %4

16:                                               ; preds = %4
  ret i32 0
}

declare dso_local i32 @__isoc99_scanf(i8*, ...) #1

; Function Attrs: noinline nounwind uwtable
define dso_local i32 @reverse(i32 %0) #0 {
  %2 = alloca i32, align 4
  %3 = alloca i32, align 4
  %4 = alloca i32, align 4
  %5 = alloca i32, align 4
  store i32 %0, i32* %2, align 4
  %6 = load i32, i32* %2, align 4
  store i32 %6, i32* %4, align 4
  store i32 0, i32* %3, align 4
  br label %7

7:                                                ; preds = %15, %1
  %8 = load i32, i32* %4, align 4
  %9 = sdiv i32 %8, 10
  store i32 %9, i32* %4, align 4
  %10 = load i32, i32* %4, align 4
  %11 = icmp eq i32 %10, 0
  br i1 %11, label %12, label %14

12:                                               ; preds = %7
  %13 = load i32, i32* %3, align 4
  store i32 %13, i32* %5, align 4
  br label %18

14:                                               ; preds = %7
  br label %15

15:                                               ; preds = %14
  %16 = load i32, i32* %3, align 4
  %17 = add nsw i32 %16, 1
  store i32 %17, i32* %3, align 4
  br label %7

18:                                               ; preds = %12
  store i32 0, i32* %4, align 4
  store i32 0, i32* %3, align 4
  br label %19

19:                                               ; preds = %40, %18
  %20 = load i32, i32* %3, align 4
  %21 = load i32, i32* %5, align 4
  %22 = add nsw i32 %21, 1
  %23 = icmp slt i32 %20, %22
  br i1 %23, label %24, label %43

24:                                               ; preds = %19
  %25 = load i32, i32* %2, align 4
  %26 = srem i32 %25, 10
  %27 = sitofp i32 %26 to double
  %28 = load i32, i32* %5, align 4
  %29 = load i32, i32* %3, align 4
  %30 = sub nsw i32 %28, %29
  %31 = sitofp i32 %30 to double
  %32 = call double @pow(double 1.000000e+01, double %31) #3
  %33 = fmul double %27, %32
  %34 = load i32, i32* %4, align 4
  %35 = sitofp i32 %34 to double
  %36 = fadd double %35, %33
  %37 = fptosi double %36 to i32
  store i32 %37, i32* %4, align 4
  %38 = load i32, i32* %2, align 4
  %39 = sdiv i32 %38, 10
  store i32 %39, i32* %2, align 4
  br label %40

40:                                               ; preds = %24
  %41 = load i32, i32* %3, align 4
  %42 = add nsw i32 %41, 1
  store i32 %42, i32* %3, align 4
  br label %19

43:                                               ; preds = %19
  %44 = load i32, i32* %4, align 4
  ret i32 %44
}

declare dso_local i32 @printf(i8*, ...) #1

; Function Attrs: nounwind
declare dso_local double @pow(double, double) #2


!llvm.module.flags = !{!0}
!llvm.ident = !{!1}

!0 = !{i32 1, !"wchar_size", i32 4}
!1 = !{!"clang version 10.0.0-4ubuntu1 "}
